target datalayout = "e-m:e-p270:32:32-p271:32:32-p272:64:64-i64:64-i128:128-f80:128-n8:16:32:64-S128"
target triple = "x86_64-pc-linux-gnu"

%struct.config = type { %struct.cliConnInfo, %struct.timeval, ptr, i32, %struct.cliSSLconfig, i64, i64, i32, i32, i32, i32, i32, i32, i32, i32, i32, i32, i64, i32, i32, i32, i32, i32, i32, i32, i32, i32, i32, i32, i32, i32, ptr, ptr, i32, i32, i64, i32, i32, i64, i64, i32, i32, ptr, i32, i32, i32, i32, ptr, ptr, [128 x i8], ptr, i32, i32, i32, i32, i32, ptr, i32, i32, %struct.clusterManagerCommand, i32, i32, i32, i32, i32, i32, ptr, ptr, ptr, i32, i32 }
%struct.cliConnInfo = type { ptr, i32, i32, ptr, ptr }
%struct.timeval = type { i64, i64 }
%struct.cliSSLconfig = type { ptr, ptr, ptr, i32, ptr, ptr, ptr, ptr }
%struct.clusterManagerCommand = type { ptr, i32, ptr, ptr, i32, i32, ptr, ptr, ptr, i32, ptr, i32, i32, i32, float, ptr, ptr, ptr, i32 }

@config = internal global %struct.config zeroinitializer, align 8
@stdout = external global ptr, align 8
@.str.633 = private unnamed_addr constant [47 x i8] c"min: %lld, max: %lld, avg: %.2f (%lld samples)\00", align 1
@.str.634 = private unnamed_addr constant [21 x i8] c"%lld,%lld,%.2f,%lld\0A\00", align 1
@.str.635 = private unnamed_addr constant [21 x i8] c"%lld %lld %.2f %lld\0A\00", align 1
@.str.636 = private unnamed_addr constant [56 x i8] c"{\22min\22: %lld, \22max\22: %lld, \22avg\22: %.2f, \22count\22: %lld}\0A\00", align 1

; Function Attrs: nounwind uwtable
define internal void @latencyModePrint(i64 noundef %0, i64 noundef %1, double noundef %2, i64 noundef %3) #0 {
  %5 = alloca i64, align 8
  %6 = alloca i64, align 8
  %7 = alloca double, align 8
  %8 = alloca i64, align 8
  store i64 %0, ptr %5, align 8, !tbaa !221
  store i64 %1, ptr %6, align 8, !tbaa !221
  store double %2, ptr %7, align 8, !tbaa !235
  store i64 %3, ptr %8, align 8, !tbaa !221
  %9 = load i32, ptr getelementptr inbounds nuw (%struct.config, ptr @config, i32 0, i32 45), align 8, !tbaa !299
  %10 = icmp eq i32 %9, 0
  br i1 %10, label %11, label %19

11:                                               ; preds = %4
  %12 = load i64, ptr %5, align 8, !tbaa !221
  %13 = load i64, ptr %6, align 8, !tbaa !221
  %14 = load double, ptr %7, align 8, !tbaa !235
  %15 = load i64, ptr %8, align 8, !tbaa !221
  %16 = call i32 (ptr, ...) @printf(ptr noundef @.str.633, i64 noundef %12, i64 noundef %13, double noundef %14, i64 noundef %15)
  %17 = load ptr, ptr @stdout, align 8, !tbaa !12
  %18 = call i32 @fflush(ptr noundef %17)
  br label %49

19:                                               ; preds = %4
  %20 = load i32, ptr getelementptr inbounds nuw (%struct.config, ptr @config, i32 0, i32 45), align 8, !tbaa !299
  %21 = icmp eq i32 %20, 2
  br i1 %21, label %22, label %28

22:                                               ; preds = %19
  %23 = load i64, ptr %5, align 8, !tbaa !221
  %24 = load i64, ptr %6, align 8, !tbaa !221
  %25 = load double, ptr %7, align 8, !tbaa !235
  %26 = load i64, ptr %8, align 8, !tbaa !221
  %27 = call i32 (ptr, ...) @printf(ptr noundef @.str.634, i64 noundef %23, i64 noundef %24, double noundef %25, i64 noundef %26)
  br label %48

28:                                               ; preds = %19
  %29 = load i32, ptr getelementptr inbounds nuw (%struct.config, ptr @config, i32 0, i32 45), align 8, !tbaa !299
  %30 = icmp eq i32 %29, 1
  br i1 %30, label %31, label %37

31:                                               ; preds = %28
  %32 = load i64, ptr %5, align 8, !tbaa !221
  %33 = load i64, ptr %6, align 8, !tbaa !221
  %34 = load double, ptr %7, align 8, !tbaa !235
  %35 = load i64, ptr %8, align 8, !tbaa !221
  %36 = call i32 (ptr, ...) @printf(ptr noundef @.str.635, i64 noundef %32, i64 noundef %33, double noundef %34, i64 noundef %35)
  br label %47

37:                                               ; preds = %28
  %38 = load i32, ptr getelementptr inbounds nuw (%struct.config, ptr @config, i32 0, i32 45), align 8, !tbaa !299
  %39 = icmp eq i32 %38, 3
  br i1 %39, label %40, label %46

40:                                               ; preds = %37
  %41 = load i64, ptr %5, align 8, !tbaa !221
  %42 = load i64, ptr %6, align 8, !tbaa !221
  %43 = load double, ptr %7, align 8, !tbaa !235
  %44 = load i64, ptr %8, align 8, !tbaa !221
  %45 = call i32 (ptr, ...) @printf(ptr noundef @.str.636, i64 noundef %41, i64 noundef %42, double noundef %43, i64 noundef %44)
  br label %46

46:                                               ; preds = %40, %37
  br label %47

47:                                               ; preds = %46, %31
  br label %48

48:                                               ; preds = %47, %22
  br label %49

49:                                               ; preds = %48, %11
  ret void
}