; Function Attrs: nofree nounwind uwtable
define internal fastcc void @latencyModePrint(i64 noundef range(i64 -18446744073709550, 18446744073709551) %0, i64 noundef range(i64 -18446744073709550, 18446744073709551) %1, double noundef %2, i64 noundef range(i64 -9223372036854775807, -9223372036854775808) %3) unnamed_addr #14 {
  %5 = load i32, ptr getelementptr inbounds nuw (i8, ptr @config, i64 328), align 8, !tbaa !248
  switch i32 %5, label %16 [
    i32 0, label %6
    i32 2, label %10
    i32 1, label %12
    i32 3, label %14
  ]

6:                                                ; preds = %4
  %7 = tail call i32 (ptr, ...) @printf(ptr noundef nonnull dereferenceable(1) @.str.633, i64 noundef %0, i64 noundef %1, double noundef %2, i64 noundef %3)
  %8 = load ptr, ptr @stdout, align 8, !tbaa !5
  %9 = tail call i32 @fflush(ptr noundef %8)
  br label %16

10:                                               ; preds = %4
  %11 = tail call i32 (ptr, ...) @printf(ptr noundef nonnull dereferenceable(1) @.str.634, i64 noundef %0, i64 noundef %1, double noundef %2, i64 noundef %3)
  br label %16

12:                                               ; preds = %4
  %13 = tail call i32 (ptr, ...) @printf(ptr noundef nonnull dereferenceable(1) @.str.635, i64 noundef %0, i64 noundef %1, double noundef %2, i64 noundef %3)
  br label %16

14:                                               ; preds = %4
  %15 = tail call i32 (ptr, ...) @printf(ptr noundef nonnull dereferenceable(1) @.str.636, i64 noundef %0, i64 noundef %1, double noundef %2, i64 noundef %3)
  br label %16

16:                                               ; preds = %4, %10, %14, %12, %6
  ret void
}